target datalayout = "e-m:e-p270:32:32-p271:32:32-p272:64:64-i64:64-i128:128-f80:128-n8:16:32:64-S128"
target triple = "x86_64-pc-linux-gnu"

%"class.cv::Mat" = type { i32, i32, i32, i32, ptr, ptr, ptr, ptr, ptr, ptr, %"struct.cv::MatSize", %"struct.cv::MatStep" }
%"struct.cv::MatSize" = type { ptr }
%"struct.cv::MatStep" = type { ptr, [2 x i64] }
%"class.cv::Size_" = type { i32, i32 }
%"class.cv::_InputArray" = type { i32, ptr, %"class.cv::Size_" }
%"class.cv::_OutputArray" = type { %"class.cv::_InputArray" }
%"class.cv::barcode::Detect" = type { %"class.std::vector", %"class.std::vector", %"class.std::vector.0", %"class.std::vector.5", %"class.std::vector.10", i32, double, i32, i32, %"class.cv::Mat", %"class.cv::Mat", %"class.cv::Mat", %"class.cv::Mat", %"class.cv::Mat", %"class.cv::Mat", %"class.cv::Mat", %"class.cv::Mat", %"class.cv::Mat" }
%"class.std::vector" = type { %"struct.std::_Vector_base" }
%"struct.std::_Vector_base" = type { %"struct.std::_Vector_base<cv::RotatedRect, std::allocator<cv::RotatedRect>>::_Vector_impl" }
%"struct.std::_Vector_base<cv::RotatedRect, std::allocator<cv::RotatedRect>>::_Vector_impl" = type { %"struct.std::_Vector_base<cv::RotatedRect, std::allocator<cv::RotatedRect>>::_Vector_impl_data" }
%"struct.std::_Vector_base<cv::RotatedRect, std::allocator<cv::RotatedRect>>::_Vector_impl_data" = type { ptr, ptr, ptr }
%"class.std::vector.0" = type { %"struct.std::_Vector_base.1" }
%"struct.std::_Vector_base.1" = type { %"struct.std::_Vector_base<float, std::allocator<float>>::_Vector_impl" }
%"struct.std::_Vector_base<float, std::allocator<float>>::_Vector_impl" = type { %"struct.std::_Vector_base<float, std::allocator<float>>::_Vector_impl_data" }
%"struct.std::_Vector_base<float, std::allocator<float>>::_Vector_impl_data" = type { ptr, ptr, ptr }
%"class.std::vector.5" = type { %"struct.std::_Vector_base.6" }
%"struct.std::_Vector_base.6" = type { %"struct.std::_Vector_base<int, std::allocator<int>>::_Vector_impl" }
%"struct.std::_Vector_base<int, std::allocator<int>>::_Vector_impl" = type { %"struct.std::_Vector_base<int, std::allocator<int>>::_Vector_impl_data" }
%"struct.std::_Vector_base<int, std::allocator<int>>::_Vector_impl_data" = type { ptr, ptr, ptr }
%"class.std::vector.10" = type { %"struct.std::_Vector_base.11" }
%"struct.std::_Vector_base.11" = type { %"struct.std::_Vector_base<std::vector<cv::Point_<float>>, std::allocator<std::vector<cv::Point_<float>>>>::_Vector_impl" }
%"struct.std::_Vector_base<std::vector<cv::Point_<float>>, std::allocator<std::vector<cv::Point_<float>>>>::_Vector_impl" = type { %"struct.std::_Vector_base<std::vector<cv::Point_<float>>, std::allocator<std::vector<cv::Point_<float>>>>::_Vector_impl_data" }
%"struct.std::_Vector_base<std::vector<cv::Point_<float>>, std::allocator<std::vector<cv::Point_<float>>>>::_Vector_impl_data" = type { ptr, ptr, ptr }

; Function Attrs: inlinehint mustprogress uwtable
define linkonce_odr hidden void @_ZN2cv11_InputArrayC2Ev(ptr noundef nonnull align 8 dereferenceable(24) %0) unnamed_addr #3 comdat align 2 {
  %2 = alloca ptr, align 8
  store ptr %0, ptr %2, align 8, !tbaa !58
  %3 = load ptr, ptr %2, align 8
  %4 = getelementptr inbounds nuw %"class.cv::_InputArray", ptr %3, i32 0, i32 2
  call void @_ZN2cv5Size_IiEC2Ev(ptr noundef nonnull align 4 dereferenceable(8) %4)
  call void @_ZN2cv11_InputArray4initEiPKv(ptr noundef nonnull align 8 dereferenceable(24) %3, i32 noundef 0, ptr noundef null)
  ret void
}

; Function Attrs: inlinehint mustprogress nounwind uwtable
define linkonce_odr hidden void @_ZN2cv11_InputArray4initEiPKv(ptr noundef nonnull align 8 dereferenceable(24) %0, i32 noundef %1, ptr noundef %2) #2 comdat align 2 {
  %4 = alloca ptr, align 8
  %5 = alloca i32, align 4
  %6 = alloca ptr, align 8
  store ptr %0, ptr %4, align 8, !tbaa !58
  store i32 %1, ptr %5, align 4, !tbaa !12
  store ptr %2, ptr %6, align 8, !tbaa !153
  %7 = load ptr, ptr %4, align 8
  %8 = load i32, ptr %5, align 4, !tbaa !12
  %9 = getelementptr inbounds nuw %"class.cv::_InputArray", ptr %7, i32 0, i32 0
  store i32 %8, ptr %9, align 8, !tbaa !154
  %10 = load ptr, ptr %6, align 8, !tbaa !153
  %11 = getelementptr inbounds nuw %"class.cv::_InputArray", ptr %7, i32 0, i32 1
  store ptr %10, ptr %11, align 8, !tbaa !156
  ret void
}

; Function Attrs: inlinehint mustprogress nounwind uwtable
define linkonce_odr hidden void @_ZN2cv5Size_IiEC2Ev(ptr noundef nonnull align 4 dereferenceable(8) %0) unnamed_addr #2 comdat align 2 {
  %2 = alloca ptr, align 8
  store ptr %0, ptr %2, align 8, !tbaa !56
  %3 = load ptr, ptr %2, align 8
  %4 = getelementptr inbounds nuw %"class.cv::Size_", ptr %3, i32 0, i32 0
  store i32 0, ptr %4, align 4, !tbaa !45
  %5 = getelementptr inbounds nuw %"class.cv::Size_", ptr %3, i32 0, i32 1
  store i32 0, ptr %5, align 4, !tbaa !48
  ret void
}

; Function Attrs: alwaysinline mustprogress nounwind uwtable
define internal noundef i32 @_ZL14_mm_cvtsd_si32Dv2_d(<2 x double> noundef %0) #13 {
  %2 = alloca <2 x double>, align 16
  store <2 x double> %0, ptr %2, align 16, !tbaa !55
  %3 = load <2 x double>, ptr %2, align 16, !tbaa !55
  %4 = call i32 @llvm.x86.sse2.cvtsd2si(<2 x double> %3)
  ret i32 %4
}

; Function Attrs: alwaysinline mustprogress nounwind uwtable
define internal noundef <2 x double> @_ZL10_mm_set_sdd(double noundef %0) #13 {
  %2 = alloca double, align 8
  %3 = alloca <2 x double>, align 16
  store double %0, ptr %2, align 8, !tbaa !10
  %4 = load double, ptr %2, align 8, !tbaa !10
  %5 = insertelement <2 x double> poison, double %4, i32 0
  %6 = insertelement <2 x double> %5, double 0.000000e+00, i32 1
  store <2 x double> %6, ptr %3, align 16, !tbaa !55
  %7 = load <2 x double>, ptr %3, align 16, !tbaa !55
  ret <2 x double> %7
}

; Function Attrs: inlinehint mustprogress nounwind uwtable
define linkonce_odr hidden void @_ZN2cv11_InputArrayD2Ev(ptr noundef nonnull align 8 dereferenceable(24) %0) unnamed_addr #2 comdat align 2 {
  %2 = alloca ptr, align 8
  store ptr %0, ptr %2, align 8, !tbaa !58
  ret void
}

; Function Attrs: inlinehint mustprogress uwtable
define linkonce_odr hidden void @_ZN2cv12_OutputArrayC2ERNS_3MatE(ptr noundef nonnull align 8 dereferenceable(24) %0, ptr noundef nonnull align 8 dereferenceable(96) %1) unnamed_addr #3 comdat align 2 {
  %3 = alloca ptr, align 8
  %4 = alloca ptr, align 8
  store ptr %0, ptr %3, align 8, !tbaa !60
  store ptr %1, ptr %4, align 8, !tbaa !8
  %5 = load ptr, ptr %3, align 8
  call void @_ZN2cv11_InputArrayC2Ev(ptr noundef nonnull align 8 dereferenceable(24) %5)
  %6 = load ptr, ptr %4, align 8, !tbaa !8
  call void @_ZN2cv11_InputArray4initEiPKv(ptr noundef nonnull align 8 dereferenceable(24) %5, i32 noundef 33619968, ptr noundef %6)
  ret void
}

; Function Attrs: inlinehint mustprogress uwtable
define linkonce_odr hidden void @_ZN2cv11_InputArrayC2ERKNS_3MatE(ptr noundef nonnull align 8 dereferenceable(24) %0, ptr noundef nonnull align 8 dereferenceable(96) %1) unnamed_addr #3 comdat align 2 {
  %3 = alloca ptr, align 8
  %4 = alloca ptr, align 8
  store ptr %0, ptr %3, align 8, !tbaa !58
  store ptr %1, ptr %4, align 8, !tbaa !8
  %5 = load ptr, ptr %3, align 8
  %6 = getelementptr inbounds nuw %"class.cv::_InputArray", ptr %5, i32 0, i32 2
  call void @_ZN2cv5Size_IiEC2Ev(ptr noundef nonnull align 4 dereferenceable(8) %6)
  %7 = load ptr, ptr %4, align 8, !tbaa !8
  call void @_ZN2cv11_InputArray4initEiPKv(ptr noundef nonnull align 8 dereferenceable(24) %5, i32 noundef 16842752, ptr noundef %7)
  ret void
}

; Function Attrs: inlinehint mustprogress nounwind uwtable
define linkonce_odr hidden void @_ZN2cv5Size_IiEC2Eii(ptr noundef nonnull align 4 dereferenceable(8) %0, i32 noundef %1, i32 noundef %2) unnamed_addr #2 comdat align 2 {
  %4 = alloca ptr, align 8
  %5 = alloca i32, align 4
  %6 = alloca i32, align 4
  store ptr %0, ptr %4, align 8, !tbaa !56
  store i32 %1, ptr %5, align 4, !tbaa !12
  store i32 %2, ptr %6, align 4, !tbaa !12
  %7 = load ptr, ptr %4, align 8
  %8 = getelementptr inbounds nuw %"class.cv::Size_", ptr %7, i32 0, i32 0
  %9 = load i32, ptr %5, align 4, !tbaa !12
  store i32 %9, ptr %8, align 4, !tbaa !45
  %10 = getelementptr inbounds nuw %"class.cv::Size_", ptr %7, i32 0, i32 1
  %11 = load i32, ptr %6, align 4, !tbaa !12
  store i32 %11, ptr %10, align 4, !tbaa !48
  ret void
}

; Function Attrs: inlinehint mustprogress uwtable
define internal noundef i32 @_ZL7cvRoundd(double noundef %0) #4 {
  %2 = alloca double, align 8
  %3 = alloca <2 x double>, align 16
  store double %0, ptr %2, align 8, !tbaa !10
  call void @llvm.lifetime.start.p0(i64 16, ptr %3) #12
  %4 = load double, ptr %2, align 8, !tbaa !10
  %5 = call noundef <2 x double> @_ZL10_mm_set_sdd(double noundef %4)
  store <2 x double> %5, ptr %3, align 16, !tbaa !55
  %6 = load <2 x double>, ptr %3, align 16, !tbaa !55
  %7 = call noundef i32 @_ZL14_mm_cvtsd_si32Dv2_d(<2 x double> noundef %6)
  call void @llvm.lifetime.end.p0(i64 16, ptr %3) #12
  ret i32 %7
}

; Function Attrs: inlinehint mustprogress nounwind uwtable
define linkonce_odr noundef nonnull align 4 dereferenceable(4) ptr @_ZSt3minIiERKT_S2_S2_(ptr noundef nonnull align 4 dereferenceable(4) %0, ptr noundef nonnull align 4 dereferenceable(4) %1) #2 comdat {
  %3 = alloca ptr, align 8
  %4 = alloca ptr, align 8
  %5 = alloca ptr, align 8
  store ptr %0, ptr %4, align 8, !tbaa !51
  store ptr %1, ptr %5, align 8, !tbaa !51
  %6 = load ptr, ptr %5, align 8, !tbaa !51
  %7 = load i32, ptr %6, align 4, !tbaa !12
  %8 = load ptr, ptr %4, align 8, !tbaa !51
  %9 = load i32, ptr %8, align 4, !tbaa !12
  %10 = icmp slt i32 %7, %9
  br i1 %10, label %11, label %13

11:                                               ; preds = %2
  %12 = load ptr, ptr %5, align 8, !tbaa !51
  store ptr %12, ptr %3, align 8
  br label %15

13:                                               ; preds = %2
  %14 = load ptr, ptr %4, align 8, !tbaa !51
  store ptr %14, ptr %3, align 8
  br label %15

15:                                               ; preds = %13, %11
  %16 = load ptr, ptr %3, align 8
  ret ptr %16
}

; Function Attrs: inlinehint mustprogress uwtable
define linkonce_odr hidden i64 @_ZNK2cv7MatSizeclEv(ptr noundef nonnull align 8 dereferenceable(8) %0) #3 comdat align 2 {
  %2 = alloca %"class.cv::Size_", align 4
  %3 = alloca ptr, align 8
  store ptr %0, ptr %3, align 8, !tbaa !52
  %4 = load ptr, ptr %3, align 8
  %5 = getelementptr inbounds nuw %"struct.cv::MatSize", ptr %4, i32 0, i32 0
  %6 = load ptr, ptr %5, align 8, !tbaa !54
  %7 = getelementptr inbounds i32, ptr %6, i64 1
  %8 = load i32, ptr %7, align 4, !tbaa !12
  %9 = getelementptr inbounds nuw %"struct.cv::MatSize", ptr %4, i32 0, i32 0
  %10 = load ptr, ptr %9, align 8, !tbaa !54
  %11 = getelementptr inbounds i32, ptr %10, i64 0
  %12 = load i32, ptr %11, align 4, !tbaa !12
  call void @_ZN2cv5Size_IiEC2Eii(ptr noundef nonnull align 4 dereferenceable(8) %2, i32 noundef %8, i32 noundef %12)
  %13 = load i64, ptr %2, align 4
  ret i64 %13
}

; Function Attrs: mustprogress uwtable
define hidden void @_ZN2cv7barcode6Detect4initERKNS_3MatEd(ptr noundef nonnull align 8 dereferenceable(1008) %0, ptr noundef nonnull align 8 dereferenceable(96) %1, double noundef %2) #0 align 2 personality ptr @__gxx_personality_v0 {
  %4 = alloca ptr, align 8
  %5 = alloca ptr, align 8
  %6 = alloca double, align 8
  %7 = alloca double, align 8
  %8 = alloca %"class.cv::Size_", align 4
  %9 = alloca %"class.cv::Size_", align 4
  %10 = alloca %"class.cv::Size_", align 4
  %11 = alloca %"class.cv::Size_", align 4
  %12 = alloca %"class.cv::Size_", align 4
  %13 = alloca %"class.cv::_InputArray", align 8
  %14 = alloca %"class.cv::_OutputArray", align 8
  %15 = alloca ptr, align 8
  %16 = alloca i32, align 4
  %17 = alloca %"class.cv::Size_", align 4
  %18 = alloca %"class.cv::Size_", align 4
  %19 = alloca %"class.cv::Size_", align 4
  %20 = alloca %"class.cv::Mat", align 8
  store ptr %0, ptr %4, align 8, !tbaa !3
  store ptr %1, ptr %5, align 8, !tbaa !8
  store double %2, ptr %6, align 8, !tbaa !10
  %21 = load ptr, ptr %4, align 8
  call void @llvm.lifetime.start.p0(i64 8, ptr %7) #12
  call void @llvm.lifetime.start.p0(i64 8, ptr %8) #12
  %22 = load ptr, ptr %5, align 8, !tbaa !8
  %23 = getelementptr inbounds nuw %"class.cv::Mat", ptr %22, i32 0, i32 10
  %24 = call i64 @_ZNK2cv7MatSizeclEv(ptr noundef nonnull align 8 dereferenceable(8) %23)
  store i64 %24, ptr %8, align 4
  %25 = getelementptr inbounds nuw %"class.cv::Size_", ptr %8, i32 0, i32 0
  call void @llvm.lifetime.start.p0(i64 8, ptr %9) #12
  %26 = load ptr, ptr %5, align 8, !tbaa !8
  %27 = getelementptr inbounds nuw %"class.cv::Mat", ptr %26, i32 0, i32 10
  %28 = call i64 @_ZNK2cv7MatSizeclEv(ptr noundef nonnull align 8 dereferenceable(8) %27)
  store i64 %28, ptr %9, align 4
  %29 = getelementptr inbounds nuw %"class.cv::Size_", ptr %9, i32 0, i32 1
  %30 = call noundef nonnull align 4 dereferenceable(4) ptr @_ZSt3minIiERKT_S2_S2_(ptr noundef nonnull align 4 dereferenceable(4) %25, ptr noundef nonnull align 4 dereferenceable(4) %29)
  %31 = load i32, ptr %30, align 4, !tbaa !12
  %32 = sitofp i32 %31 to double
  call void @llvm.lifetime.end.p0(i64 8, ptr %9) #12
  call void @llvm.lifetime.end.p0(i64 8, ptr %8) #12
  store double %32, ptr %7, align 8, !tbaa !10
  %33 = load double, ptr %7, align 8, !tbaa !10
  %34 = load double, ptr %6, align 8, !tbaa !10
  %35 = fcmp ogt double %33, %34
  br i1 %35, label %36, label %82

36:                                               ; preds = %3
  %37 = getelementptr inbounds nuw %"class.cv::barcode::Detect", ptr %21, i32 0, i32 5
  store i32 1, ptr %37, align 8, !tbaa !14
  %38 = load double, ptr %7, align 8, !tbaa !10
  %39 = load double, ptr %6, align 8, !tbaa !10
  %40 = fdiv double %38, %39
  %41 = getelementptr inbounds nuw %"class.cv::barcode::Detect", ptr %21, i32 0, i32 6
  store double %40, ptr %41, align 8, !tbaa !44
  call void @llvm.lifetime.start.p0(i64 8, ptr %10) #12
  %42 = load ptr, ptr %5, align 8, !tbaa !8
  %43 = getelementptr inbounds nuw %"class.cv::Mat", ptr %42, i32 0, i32 10
  %44 = call i64 @_ZNK2cv7MatSizeclEv(ptr noundef nonnull align 8 dereferenceable(8) %43)
  store i64 %44, ptr %10, align 4
  %45 = getelementptr inbounds nuw %"class.cv::Size_", ptr %10, i32 0, i32 0
  %46 = load i32, ptr %45, align 4, !tbaa !45
  %47 = sitofp i32 %46 to double
  %48 = getelementptr inbounds nuw %"class.cv::barcode::Detect", ptr %21, i32 0, i32 6
  %49 = load double, ptr %48, align 8, !tbaa !44
  %50 = fdiv double %47, %49
  %51 = call noundef i32 @_ZL7cvRoundd(double noundef %50)
  %52 = getelementptr inbounds nuw %"class.cv::barcode::Detect", ptr %21, i32 0, i32 8
  store i32 %51, ptr %52, align 4, !tbaa !47
  call void @llvm.lifetime.end.p0(i64 8, ptr %10) #12
  call void @llvm.lifetime.start.p0(i64 8, ptr %11) #12
  %53 = load ptr, ptr %5, align 8, !tbaa !8
  %54 = getelementptr inbounds nuw %"class.cv::Mat", ptr %53, i32 0, i32 10
  %55 = call i64 @_ZNK2cv7MatSizeclEv(ptr noundef nonnull align 8 dereferenceable(8) %54)
  store i64 %55, ptr %11, align 4
  %56 = getelementptr inbounds nuw %"class.cv::Size_", ptr %11, i32 0, i32 1
  %57 = load i32, ptr %56, align 4, !tbaa !48
  %58 = sitofp i32 %57 to double
  %59 = getelementptr inbounds nuw %"class.cv::barcode::Detect", ptr %21, i32 0, i32 6
  %60 = load double, ptr %59, align 8, !tbaa !44
  %61 = fdiv double %58, %60
  %62 = call noundef i32 @_ZL7cvRoundd(double noundef %61)
  %63 = getelementptr inbounds nuw %"class.cv::barcode::Detect", ptr %21, i32 0, i32 7
  store i32 %62, ptr %63, align 8, !tbaa !49
  call void @llvm.lifetime.end.p0(i64 8, ptr %11) #12
  call void @llvm.lifetime.start.p0(i64 8, ptr %12) #12
  %64 = getelementptr inbounds nuw %"class.cv::barcode::Detect", ptr %21, i32 0, i32 8
  %65 = load i32, ptr %64, align 4, !tbaa !47
  %66 = getelementptr inbounds nuw %"class.cv::barcode::Detect", ptr %21, i32 0, i32 7
  %67 = load i32, ptr %66, align 8, !tbaa !49
  call void @_ZN2cv5Size_IiEC2Eii(ptr noundef nonnull align 4 dereferenceable(8) %12, i32 noundef %65, i32 noundef %67)
  call void @llvm.lifetime.start.p0(i64 24, ptr %13) #12
  %68 = load ptr, ptr %5, align 8, !tbaa !8
  call void @_ZN2cv11_InputArrayC2ERKNS_3MatE(ptr noundef nonnull align 8 dereferenceable(24) %13, ptr noundef nonnull align 8 dereferenceable(96) %68)
  call void @llvm.lifetime.start.p0(i64 24, ptr %14) #12
  %69 = getelementptr inbounds nuw %"class.cv::barcode::Detect", ptr %21, i32 0, i32 9
  invoke void @_ZN2cv12_OutputArrayC2ERNS_3MatE(ptr noundef nonnull align 8 dereferenceable(24) %14, ptr noundef nonnull align 8 dereferenceable(96) %69)
          to label %70 unwind label %73

70:                                               ; preds = %36
  call void @llvm.memcpy.p0.p0.i64(ptr align 4 %17, ptr align 4 %12, i64 8, i1 false), !tbaa.struct !50
  %71 = load i64, ptr %17, align 4
  invoke void @_ZN2cv6resizeERKNS_11_InputArrayERKNS_12_OutputArrayENS_5Size_IiEEddi(ptr noundef nonnull align 8 dereferenceable(24) %13, ptr noundef nonnull align 8 dereferenceable(24) %14, i64 %71, double noundef 0.000000e+00, double noundef 0.000000e+00, i32 noundef 3)
          to label %72 unwind label %77

72:                                               ; preds = %70
  call void @_ZN2cv11_InputArrayD2Ev(ptr noundef nonnull align 8 dereferenceable(24) %14) #12
  call void @llvm.lifetime.end.p0(i64 24, ptr %14) #12
  call void @_ZN2cv11_InputArrayD2Ev(ptr noundef nonnull align 8 dereferenceable(24) %13) #12
  call void @llvm.lifetime.end.p0(i64 24, ptr %13) #12
  call void @llvm.lifetime.end.p0(i64 8, ptr %12) #12
  br label %105

73:                                               ; preds = %36
  %74 = landingpad { ptr, i32 }
          cleanup
  %75 = extractvalue { ptr, i32 } %74, 0
  store ptr %75, ptr %15, align 8
  %76 = extractvalue { ptr, i32 } %74, 1
  store i32 %76, ptr %16, align 4
  br label %81

77:                                               ; preds = %70
  %78 = landingpad { ptr, i32 }
          cleanup
  %79 = extractvalue { ptr, i32 } %78, 0
  store ptr %79, ptr %15, align 8
  %80 = extractvalue { ptr, i32 } %78, 1
  store i32 %80, ptr %16, align 4
  call void @_ZN2cv11_InputArrayD2Ev(ptr noundef nonnull align 8 dereferenceable(24) %14) #12
  br label %81

81:                                               ; preds = %77, %73
  call void @llvm.lifetime.end.p0(i64 24, ptr %14) #12
  call void @_ZN2cv11_InputArrayD2Ev(ptr noundef nonnull align 8 dereferenceable(24) %13) #12
  call void @llvm.lifetime.end.p0(i64 24, ptr %13) #12
  call void @llvm.lifetime.end.p0(i64 8, ptr %12) #12
  br label %106

82:                                               ; preds = %3
  %83 = getelementptr inbounds nuw %"class.cv::barcode::Detect", ptr %21, i32 0, i32 5
  store i32 2, ptr %83, align 8, !tbaa !14
  %84 = getelementptr inbounds nuw %"class.cv::barcode::Detect", ptr %21, i32 0, i32 6
  store double 1.000000e+00, ptr %84, align 8, !tbaa !44
  call void @llvm.lifetime.start.p0(i64 8, ptr %18) #12
  %85 = load ptr, ptr %5, align 8, !tbaa !8
  %86 = getelementptr inbounds nuw %"class.cv::Mat", ptr %85, i32 0, i32 10
  %87 = call i64 @_ZNK2cv7MatSizeclEv(ptr noundef nonnull align 8 dereferenceable(8) %86)
  store i64 %87, ptr %18, align 4
  %88 = getelementptr inbounds nuw %"class.cv::Size_", ptr %18, i32 0, i32 0
  %89 = load i32, ptr %88, align 4, !tbaa !45
  %90 = getelementptr inbounds nuw %"class.cv::barcode::Detect", ptr %21, i32 0, i32 8
  store i32 %89, ptr %90, align 4, !tbaa !47
  call void @llvm.lifetime.end.p0(i64 8, ptr %18) #12
  call void @llvm.lifetime.start.p0(i64 8, ptr %19) #12
  %91 = load ptr, ptr %5, align 8, !tbaa !8
  %92 = getelementptr inbounds nuw %"class.cv::Mat", ptr %91, i32 0, i32 10
  %93 = call i64 @_ZNK2cv7MatSizeclEv(ptr noundef nonnull align 8 dereferenceable(8) %92)
  store i64 %93, ptr %19, align 4
  %94 = getelementptr inbounds nuw %"class.cv::Size_", ptr %19, i32 0, i32 1
  %95 = load i32, ptr %94, align 4, !tbaa !48
  %96 = getelementptr inbounds nuw %"class.cv::barcode::Detect", ptr %21, i32 0, i32 7
  store i32 %95, ptr %96, align 8, !tbaa !49
  call void @llvm.lifetime.end.p0(i64 8, ptr %19) #12
  call void @llvm.lifetime.start.p0(i64 96, ptr %20) #12
  %97 = load ptr, ptr %5, align 8, !tbaa !8
  call void @_ZNK2cv3Mat5cloneEv(ptr dead_on_unwind writable sret(%"class.cv::Mat") align 8 %20, ptr noundef nonnull align 8 dereferenceable(96) %97)
  %98 = getelementptr inbounds nuw %"class.cv::barcode::Detect", ptr %21, i32 0, i32 9
  %99 = invoke noundef nonnull align 8 dereferenceable(96) ptr @_ZN2cv3MataSEOS0_(ptr noundef nonnull align 8 dereferenceable(96) %98, ptr noundef nonnull align 8 dereferenceable(96) %20)
          to label %100 unwind label %101

100:                                              ; preds = %82
  call void @_ZN2cv3MatD1Ev(ptr noundef nonnull align 8 dereferenceable(96) %20) #12
  call void @llvm.lifetime.end.p0(i64 96, ptr %20) #12
  br label %105

101:                                              ; preds = %82
  %102 = landingpad { ptr, i32 }
          cleanup
  %103 = extractvalue { ptr, i32 } %102, 0
  store ptr %103, ptr %15, align 8
  %104 = extractvalue { ptr, i32 } %102, 1
  store i32 %104, ptr %16, align 4
  call void @_ZN2cv3MatD1Ev(ptr noundef nonnull align 8 dereferenceable(96) %20) #12
  call void @llvm.lifetime.end.p0(i64 96, ptr %20) #12
  br label %106

105:                                              ; preds = %100, %72
  call void @llvm.lifetime.end.p0(i64 8, ptr %7) #12
  ret void

106:                                              ; preds = %101, %81
  call void @llvm.lifetime.end.p0(i64 8, ptr %7) #12
  br label %107

107:                                              ; preds = %106
  %108 = load ptr, ptr %15, align 8
  %109 = load i32, ptr %16, align 4
  %110 = insertvalue { ptr, i32 } poison, ptr %108, 0
  %111 = insertvalue { ptr, i32 } %110, i32 %109, 1
  resume { ptr, i32 } %111
}