; Function Attrs: mustprogress uwtable
define hidden void @_ZN2cv7barcode6Detect4initERKNS_3MatEd(ptr noundef nonnull align 8 dereferenceable(1008) initializes((120, 124), (128, 144)) %0, ptr noundef nonnull align 8 dereferenceable(96) %1, double noundef %2) local_unnamed_addr #0 align 2 personality ptr @__gxx_personality_v0 {
  %4 = alloca %"class.cv::_InputArray", align 8
  %5 = alloca %"class.cv::_OutputArray", align 8
  %6 = alloca %"class.cv::Mat", align 8
  %7 = getelementptr inbounds nuw i8, ptr %1, i64 64
  %8 = load ptr, ptr %7, align 8, !tbaa !3
  %9 = getelementptr inbounds nuw i8, ptr %8, i64 4
  %10 = load i32, ptr %9, align 4, !tbaa !9
  %11 = load i32, ptr %8, align 4, !tbaa !9
  %.sroa.speculated = tail call i32 @llvm.smin.i32(i32 %11, i32 %10)
  %12 = sitofp i32 %.sroa.speculated to double
  %13 = fcmp olt double %2, %12
  %14 = getelementptr inbounds nuw i8, ptr %0, i64 120
  br i1 %13, label %15, label %35

15:                                               ; preds = %3
  store i32 1, ptr %14, align 8, !tbaa !11
  %16 = fdiv double %12, %2
  %17 = getelementptr inbounds nuw i8, ptr %0, i64 128
  store double %16, ptr %17, align 8, !tbaa !40
  %18 = sitofp i32 %10 to double
  %19 = fdiv double %18, %16
  %20 = insertelement <2 x double> poison, double %19, i64 0
  %21 = tail call noundef i32 @llvm.x86.sse2.cvtsd2si(<2 x double> %20)
  %22 = getelementptr inbounds nuw i8, ptr %0, i64 140
  store i32 %21, ptr %22, align 4, !tbaa !41
  %23 = load i32, ptr %8, align 4, !tbaa !9
  %24 = sitofp i32 %23 to double
  %25 = fdiv double %24, %16
  %26 = insertelement <2 x double> poison, double %25, i64 0
  %27 = tail call noundef i32 @llvm.x86.sse2.cvtsd2si(<2 x double> %26)
  %28 = getelementptr inbounds nuw i8, ptr %0, i64 136
  store i32 %27, ptr %28, align 8, !tbaa !42
  call void @llvm.lifetime.start.p0(i64 24, ptr nonnull %4) #21
  %29 = getelementptr inbounds nuw i8, ptr %4, i64 16
  store i32 0, ptr %29, align 8, !tbaa !43
  %30 = getelementptr inbounds nuw i8, ptr %4, i64 20
  store i32 0, ptr %30, align 4, !tbaa !45
  store i32 16842752, ptr %4, align 8, !tbaa !46
  %31 = getelementptr inbounds nuw i8, ptr %4, i64 8
  store ptr %1, ptr %31, align 8, !tbaa !48
  call void @llvm.lifetime.start.p0(i64 24, ptr nonnull %5) #21
  %32 = getelementptr inbounds nuw i8, ptr %0, i64 144
  %33 = getelementptr inbounds nuw i8, ptr %5, i64 8
  %34 = getelementptr inbounds nuw i8, ptr %5, i64 16
  store i64 0, ptr %34, align 8
  store i32 33619968, ptr %5, align 8, !tbaa !46
  store ptr %32, ptr %33, align 8, !tbaa !48
  %.sroa.5.0.insert.ext = zext i32 %27 to i64
  %.sroa.5.0.insert.shift = shl nuw i64 %.sroa.5.0.insert.ext, 32
  %.sroa.0.0.insert.ext = zext i32 %21 to i64
  %.sroa.0.0.insert.insert = or disjoint i64 %.sroa.5.0.insert.shift, %.sroa.0.0.insert.ext
  call void @_ZN2cv6resizeERKNS_11_InputArrayERKNS_12_OutputArrayENS_5Size_IiEEddi(ptr noundef nonnull align 8 dereferenceable(24) %4, ptr noundef nonnull align 8 dereferenceable(24) %5, i64 %.sroa.0.0.insert.insert, double noundef 0.000000e+00, double noundef 0.000000e+00, i32 noundef 3)
  call void @llvm.lifetime.end.p0(i64 24, ptr nonnull %5) #21
  call void @llvm.lifetime.end.p0(i64 24, ptr nonnull %4) #21
  br label %45

35:                                               ; preds = %3
  store i32 2, ptr %14, align 8, !tbaa !11
  %36 = getelementptr inbounds nuw i8, ptr %0, i64 128
  store double 1.000000e+00, ptr %36, align 8, !tbaa !40
  %37 = getelementptr inbounds nuw i8, ptr %0, i64 140
  store i32 %10, ptr %37, align 4, !tbaa !41
  %38 = load i32, ptr %8, align 4, !tbaa !9
  %39 = getelementptr inbounds nuw i8, ptr %0, i64 136
  store i32 %38, ptr %39, align 8, !tbaa !42
  call void @llvm.lifetime.start.p0(i64 96, ptr nonnull %6) #21
  call void @_ZNK2cv3Mat5cloneEv(ptr dead_on_unwind nonnull writable sret(%"class.cv::Mat") align 8 %6, ptr noundef nonnull align 8 dereferenceable(96) %1)
  %40 = getelementptr inbounds nuw i8, ptr %0, i64 144
  %41 = invoke noundef nonnull align 8 dereferenceable(96) ptr @_ZN2cv3MataSEOS0_(ptr noundef nonnull align 8 dereferenceable(96) %40, ptr noundef nonnull align 8 dereferenceable(96) %6)
          to label %42 unwind label %43

42:                                               ; preds = %35
  call void @_ZN2cv3MatD1Ev(ptr noundef nonnull align 8 dereferenceable(96) %6) #21
  call void @llvm.lifetime.end.p0(i64 96, ptr nonnull %6) #21
  br label %45

43:                                               ; preds = %35
  %44 = landingpad { ptr, i32 }
          cleanup
  call void @_ZN2cv3MatD1Ev(ptr noundef nonnull align 8 dereferenceable(96) %6) #21
  call void @llvm.lifetime.end.p0(i64 96, ptr nonnull %6) #21
  resume { ptr, i32 } %44

45:                                               ; preds = %42, %15
  ret void
}